#include <math.h>
#include <stdio.h>
#include <stdlib.h>
#include <string.h>


int main()
{
	int cun[100]={0},fang[100]={0};
	int n;
	scanf("%d",&n);
	int i;
	for(i=0;i<n;i++)
	{
		scanf("%d",&cun[i]);
		fang[i]=cun[i];
	}
	for(i=0;i<n-1;i++)
	{
		cun[i]=fang[n-1-i];
		printf("%d ",cun[i]);
	}
	cun[n-1]=fang[0];
	printf("%d",cun[n-1]);
	return 0;
}